target datalayout = "e-m:e-p270:32:32-p271:32:32-p272:64:64-i64:64-i128:128-f80:128-n8:16:32:64-S128"
target triple = "x86_64-pc-linux-gnu"

@_ZN6icu_7722LocaleDisplayNamesImplC1ERKNS_6LocaleEP15UDisplayContexti = unnamed_addr alias void (ptr, ptr, ptr, i32), ptr @_ZN6icu_7722LocaleDisplayNamesImplC2ERKNS_6LocaleEP15UDisplayContexti

; Function Attrs: mustprogress uwtable
define noundef ptr @_ZN6icu_7718LocaleDisplayNames14createInstanceERKNS_6LocaleEP15UDisplayContexti(ptr noundef nonnull align 8 dereferenceable(217) %0, ptr noundef %1, i32 noundef %2) #1 align 2 personality ptr @__gxx_personality_v0 {
  %4 = alloca ptr, align 8
  %5 = alloca ptr, align 8
  %6 = alloca i32, align 4
  %7 = alloca ptr, align 8
  %8 = alloca i1, align 1
  %9 = alloca ptr, align 8
  %10 = alloca i32, align 4
  store ptr %0, ptr %4, align 8, !tbaa !25
  store ptr %1, ptr %5, align 8, !tbaa !22
  store i32 %2, ptr %6, align 4, !tbaa !14
  %11 = load ptr, ptr %5, align 8, !tbaa !22
  %12 = icmp eq ptr %11, null
  br i1 %12, label %13, label %14

13:                                               ; preds = %3
  store i32 0, ptr %6, align 4, !tbaa !14
  br label %14

14:                                               ; preds = %13, %3
  %15 = call noundef ptr @_ZN6icu_777UMemorynwEm(i64 noundef 1208) #13
  %16 = icmp eq ptr %15, null
  store i1 false, ptr %8, align 1
  br i1 %16, label %22, label %17

17:                                               ; preds = %14
  store ptr %15, ptr %7, align 8
  store i1 true, ptr %8, align 1
  %18 = load ptr, ptr %4, align 8, !tbaa !25
  %19 = load ptr, ptr %5, align 8, !tbaa !22
  %20 = load i32, ptr %6, align 4, !tbaa !14
  invoke void @_ZN6icu_7722LocaleDisplayNamesImplC1ERKNS_6LocaleEP15UDisplayContexti(ptr noundef nonnull align 8 dereferenceable(1206) %15, ptr noundef nonnull align 8 dereferenceable(217) %18, ptr noundef %19, i32 noundef %20)
          to label %21 unwind label %24

21:                                               ; preds = %17
  br label %22

22:                                               ; preds = %21, %14
  %23 = phi ptr [ %15, %21 ], [ null, %14 ]
  ret ptr %23

24:                                               ; preds = %17
  %25 = landingpad { ptr, i32 }
          cleanup
  %26 = extractvalue { ptr, i32 } %25, 0
  store ptr %26, ptr %9, align 8
  %27 = extractvalue { ptr, i32 } %25, 1
  store i32 %27, ptr %10, align 4
  %28 = load i1, ptr %8, align 1
  br i1 %28, label %29, label %31

29:                                               ; preds = %24
  %30 = load ptr, ptr %7, align 8
  call void @_ZN6icu_777UMemorydlEPv(ptr noundef %30) #13
  br label %31

31:                                               ; preds = %29, %24
  br label %32

32:                                               ; preds = %31
  %33 = load ptr, ptr %9, align 8
  %34 = load i32, ptr %10, align 4
  %35 = insertvalue { ptr, i32 } poison, ptr %33, 0
  %36 = insertvalue { ptr, i32 } %35, i32 %34, 1
  resume { ptr, i32 } %36
}