; Function Attrs: mustprogress uwtable
define noundef ptr @_ZN6icu_7718LocaleDisplayNames14createInstanceERKNS_6LocaleEP15UDisplayContexti(ptr noundef nonnull align 8 dereferenceable(217) %0, ptr noundef %1, i32 noundef %2) local_unnamed_addr #1 align 2 personality ptr @__gxx_personality_v0 {
  %4 = tail call noundef ptr @_ZN6icu_777UMemorynwEm(i64 noundef 1208) #19
  %5 = icmp eq ptr %4, null
  br i1 %5, label %8, label %6

6:                                                ; preds = %3
  %7 = icmp eq ptr %1, null
  %spec.store.select = select i1 %7, i32 0, i32 %2
  invoke void @_ZN6icu_7722LocaleDisplayNamesImplC1ERKNS_6LocaleEP15UDisplayContexti(ptr noundef nonnull align 8 dereferenceable(1206) %4, ptr noundef nonnull align 8 dereferenceable(217) %0, ptr noundef %1, i32 noundef %spec.store.select)
          to label %8 unwind label %9

8:                                                ; preds = %6, %3
  ret ptr %4

9:                                                ; preds = %6
  %10 = landingpad { ptr, i32 }
          cleanup
  tail call void @_ZN6icu_777UMemorydlEPv(ptr noundef nonnull %4) #19
  resume { ptr, i32 } %10
}